; ModuleID = '62/1391.c'
source_filename = "62/1391.c"
target datalayout = "e-m:e-p270:32:32-p271:32:32-p272:64:64-i64:64-f80:128-n8:16:32:64-S128"
target triple = "x86_64-pc-linux-gnu"

@.str = private unnamed_addr constant [3 x i8] c"%c\00", align 1

; Function Attrs: noinline nounwind uwtable
define dso_local i32 @main() #0 {
  %1 = alloca i32, align 4
  %2 = alloca i8*, align 8
  %3 = alloca i8*, align 8
  %4 = alloca i32, align 4
  %5 = alloca i32, align 4
  store i32 0, i32* %1, align 4
  %6 = call noalias i8* @malloc(i64 100) #3
  store i8* %6, i8** %2, align 8
  store i8* %6, i8** %3, align 8
  store i32 0, i32* %4, align 4
  br label %7

7:                                                ; preds = %22, %0
  %8 = load i8*, i8** %2, align 8
  %9 = load i32, i32* %4, align 4
  %10 = sext i32 %9 to i64
  %11 = getelementptr inbounds i8, i8* %8, i64 %10
  %12 = getelementptr inbounds i8, i8* %11, i64 -1
  %13 = load i8, i8* %12, align 1
  %14 = sext i8 %13 to i32
  %15 = icmp ne i32 %14, 10
  br i1 %15, label %16, label %25

16:                                               ; preds = %7
  %17 = load i8*, i8** %2, align 8
  %18 = load i32, i32* %4, align 4
  %19 = sext i32 %18 to i64
  %20 = getelementptr inbounds i8, i8* %17, i64 %19
  %21 = call i32 (i8*, ...) @__isoc99_scanf(i8* getelementptr inbounds ([3 x i8], [3 x i8]* @.str, i64 0, i64 0), i8* %20)
  br label %22

22:                                               ; preds = %16
  %23 = load i32, i32* %4, align 4
  %24 = add nsw i32 %23, 1
  store i32 %24, i32* %4, align 4
  br label %7

25:                                               ; preds = %7
  %26 = load i32, i32* %4, align 4
  store i32 %26, i32* %5, align 4
  br label %27

27:                                               ; preds = %82, %25
  %28 = load i8*, i8** %2, align 8
  %29 = load i8, i8* %28, align 1
  %30 = sext i8 %29 to i32
  %31 = icmp ne i32 %30, 0
  br i1 %31, label %32, label %85

32:                                               ; preds = %27
  %33 = load i8*, i8** %2, align 8
  %34 = load i8, i8* %33, align 1
  %35 = sext i8 %34 to i32
  %36 = icmp ne i32 %35, 32
  br i1 %36, label %37, label %43

37:                                               ; preds = %32
  %38 = load i8*, i8** %2, align 8
  %39 = getelementptr inbounds i8, i8* %38, i64 1
  %40 = load i8, i8* %39, align 1
  %41 = sext i8 %40 to i32
  %42 = icmp eq i32 %41, 32
  br i1 %42, label %76, label %43

43:                                               ; preds = %37, %32
  %44 = load i8*, i8** %2, align 8
  %45 = load i8, i8* %44, align 1
  %46 = sext i8 %45 to i32
  %47 = icmp eq i32 %46, 32
  br i1 %47, label %48, label %54

48:                                               ; preds = %43
  %49 = load i8*, i8** %2, align 8
  %50 = getelementptr inbounds i8, i8* %49, i64 1
  %51 = load i8, i8* %50, align 1
  %52 = sext i8 %51 to i32
  %53 = icmp ne i32 %52, 32
  br i1 %53, label %76, label %54

54:                                               ; preds = %48, %43
  %55 = load i8*, i8** %2, align 8
  %56 = load i8, i8* %55, align 1
  %57 = sext i8 %56 to i32
  %58 = icmp ne i32 %57, 32
  br i1 %58, label %59, label %65

59:                                               ; preds = %54
  %60 = load i8*, i8** %2, align 8
  %61 = getelementptr inbounds i8, i8* %60, i64 1
  %62 = load i8, i8* %61, align 1
  %63 = sext i8 %62 to i32
  %64 = icmp ne i32 %63, 32
  br i1 %64, label %76, label %65

65:                                               ; preds = %59, %54
  %66 = load i8*, i8** %2, align 8
  %67 = load i8, i8* %66, align 1
  %68 = sext i8 %67 to i32
  %69 = icmp ne i32 %68, 32
  br i1 %69, label %70, label %81

70:                                               ; preds = %65
  %71 = load i8*, i8** %2, align 8
  %72 = getelementptr inbounds i8, i8* %71, i64 1
  %73 = load i8, i8* %72, align 1
  %74 = sext i8 %73 to i32
  %75 = icmp eq i32 %74, 0
  br i1 %75, label %76, label %81

76:                                               ; preds = %70, %59, %48, %37
  %77 = load i8*, i8** %2, align 8
  %78 = load i8, i8* %77, align 1
  %79 = sext i8 %78 to i32
  %80 = call i32 (i8*, ...) @printf(i8* getelementptr inbounds ([3 x i8], [3 x i8]* @.str, i64 0, i64 0), i32 %79)
  br label %81

81:                                               ; preds = %76, %70, %65
  br label %82

82:                                               ; preds = %81
  %83 = load i8*, i8** %2, align 8
  %84 = getelementptr inbounds i8, i8* %83, i32 1
  store i8* %84, i8** %2, align 8
  br label %27

85:                                               ; preds = %27
  ret i32 0
}

; Function Attrs: nounwind
declare dso_local noalias i8* @malloc(i64) #1

declare dso_local i32 @__isoc99_scanf(i8*, ...) #2

declare dso_local i32 @printf(i8*, ...) #2


!llvm.module.flags = !{!0}
!llvm.ident = !{!1}

!0 = !{i32 1, !"wchar_size", i32 4}
!1 = !{!"clang version 10.0.0-4ubuntu1 "}
