; ModuleID = 'source-C-CXX/61/1391.c'
source_filename = "source-C-CXX/61/1391.c"
target datalayout = "e-m:e-p270:32:32-p271:32:32-p272:64:64-i64:64-f80:128-n8:16:32:64-S128"
target triple = "x86_64-pc-linux-gnu"

@.str = private unnamed_addr constant [3 x i8] c"%c\00", align 1

; Function Attrs: nofree nounwind sspstrong uwtable
define dso_local i32 @main() local_unnamed_addr #0 {
  %1 = tail call noalias align 16 dereferenceable_or_null(100) i8* @malloc(i64 100) #4
  br label %2

2:                                                ; preds = %0, %2
  %3 = phi i64 [ 0, %0 ], [ %6, %2 ]
  %4 = phi i8* [ %1, %0 ], [ %7, %2 ]
  %5 = tail call i32 (i8*, ...) @__isoc99_scanf(i8* getelementptr inbounds ([3 x i8], [3 x i8]* @.str, i64 0, i64 0), i8* nonnull %4)
  %6 = add nuw i64 %3, 1
  %7 = getelementptr inbounds i8, i8* %1, i64 %6
  %8 = getelementptr inbounds i8, i8* %1, i64 %3
  %9 = load i8, i8* %8, align 1, !tbaa !5
  %10 = icmp eq i8 %9, 10
  br i1 %10, label %11, label %2, !llvm.loop !8

11:                                               ; preds = %2, %21
  %12 = phi i8* [ %22, %21 ], [ %1, %2 ]
  %13 = load i8, i8* %12, align 1, !tbaa !5
  switch i8 %13, label %18 [
    i8 0, label %23
    i8 32, label %14
  ]

14:                                               ; preds = %11
  %15 = getelementptr inbounds i8, i8* %12, i64 1
  %16 = load i8, i8* %15, align 1, !tbaa !5
  %17 = icmp eq i8 %16, 32
  br i1 %17, label %21, label %18

18:                                               ; preds = %11, %14
  %19 = sext i8 %13 to i32
  %20 = tail call i32 @putchar(i32 %19)
  br label %21

21:                                               ; preds = %14, %18
  %22 = getelementptr inbounds i8, i8* %12, i64 1
  br label %11, !llvm.loop !10

23:                                               ; preds = %11
  ret i32 0
}

; Function Attrs: inaccessiblememonly mustprogress nofree nounwind willreturn
declare noalias noundef align 16 i8* @malloc(i64 noundef) local_unnamed_addr #1

; Function Attrs: nofree nounwind
declare noundef i32 @__isoc99_scanf(i8* nocapture noundef readonly, ...) local_unnamed_addr #2

; Function Attrs: nofree nounwind
declare noundef i32 @putchar(i32 noundef) local_unnamed_addr #3


!llvm.module.flags = !{!0, !1, !2, !3}
!llvm.ident = !{!4}

!0 = !{i32 1, !"wchar_size", i32 4}
!1 = !{i32 7, !"PIC Level", i32 2}
!2 = !{i32 7, !"PIE Level", i32 2}
!3 = !{i32 7, !"uwtable", i32 1}
!4 = !{!"clang version 13.0.0"}
!5 = !{!6, !6, i64 0}
!6 = !{!"omnipotent char", !7, i64 0}
!7 = !{!"Simple C/C++ TBAA"}
!8 = distinct !{!8, !9}
!9 = !{!"llvm.loop.mustprogress"}
!10 = distinct !{!10, !9}
